; Function Attrs: mustprogress nofree norecurse nosync nounwind willreturn memory(read, inaccessiblemem: none) uwtable
define hidden noundef ptr @_ZN5ZPage10generationEv(ptr nocapture noundef nonnull readonly align 8 dereferenceable(192) %0) local_unnamed_addr #3 align 2 {
  %2 = getelementptr inbounds i8, ptr %0, i64 1
  %3 = load i8, ptr %2, align 1
  %4 = icmp eq i8 %3, 0
  %_ZN11ZGeneration6_youngE.val.i = load ptr, ptr @_ZN11ZGeneration6_youngE, align 8
  %_ZN11ZGeneration4_oldE.val.i = load ptr, ptr @_ZN11ZGeneration4_oldE, align 8
  %.0.i = select i1 %4, ptr %_ZN11ZGeneration6_youngE.val.i, ptr %_ZN11ZGeneration4_oldE.val.i
  ret ptr %.0.i
}